target datalayout = "e-m:e-p270:32:32-p271:32:32-p272:64:64-i64:64-i128:128-f80:128-n8:16:32:64-S128"
target triple = "x86_64-pc-linux-gnu"

%struct.poly_st = type { [256 x i32] }

; Function Attrs: inlinehint nounwind uwtable
define internal i32 @value_barrier_32(i32 noundef %0) #2 {
  %2 = alloca i32, align 4
  %3 = alloca i32, align 4
  store i32 %0, ptr %2, align 4, !tbaa !8
  call void @llvm.lifetime.start.p0(i64 4, ptr %3) #3
  %4 = load i32, ptr %2, align 4, !tbaa !8
  %5 = call i32 asm "", "=r,0,~{dirflag},~{fpsr},~{flags}"(i32 %4) #4, !srcloc !21
  store i32 %5, ptr %3, align 4, !tbaa !8
  %6 = load i32, ptr %3, align 4, !tbaa !8
  call void @llvm.lifetime.end.p0(i64 4, ptr %3) #3
  ret i32 %6
}

; Function Attrs: inlinehint nounwind uwtable
define internal i32 @constant_time_msb_32(i32 noundef %0) #2 {
  %2 = alloca i32, align 4
  store i32 %0, ptr %2, align 4, !tbaa !8
  %3 = load i32, ptr %2, align 4, !tbaa !8
  %4 = lshr i32 %3, 31
  %5 = sub i32 0, %4
  ret i32 %5
}

; Function Attrs: inlinehint nounwind uwtable
define internal i32 @constant_time_select_32(i32 noundef %0, i32 noundef %1, i32 noundef %2) #2 {
  %4 = alloca i32, align 4
  %5 = alloca i32, align 4
  %6 = alloca i32, align 4
  store i32 %0, ptr %4, align 4, !tbaa !8
  store i32 %1, ptr %5, align 4, !tbaa !8
  store i32 %2, ptr %6, align 4, !tbaa !8
  %7 = load i32, ptr %4, align 4, !tbaa !8
  %8 = call i32 @value_barrier_32(i32 noundef %7)
  %9 = load i32, ptr %5, align 4, !tbaa !8
  %10 = and i32 %8, %9
  %11 = load i32, ptr %4, align 4, !tbaa !8
  %12 = xor i32 %11, -1
  %13 = call i32 @value_barrier_32(i32 noundef %12)
  %14 = load i32, ptr %6, align 4, !tbaa !8
  %15 = and i32 %13, %14
  %16 = or i32 %10, %15
  ret i32 %16
}

; Function Attrs: inlinehint nounwind uwtable
define internal i32 @constant_time_lt_32(i32 noundef %0, i32 noundef %1) #2 {
  %3 = alloca i32, align 4
  %4 = alloca i32, align 4
  store i32 %0, ptr %3, align 4, !tbaa !8
  store i32 %1, ptr %4, align 4, !tbaa !8
  %5 = load i32, ptr %3, align 4, !tbaa !8
  %6 = load i32, ptr %3, align 4, !tbaa !8
  %7 = load i32, ptr %4, align 4, !tbaa !8
  %8 = xor i32 %6, %7
  %9 = load i32, ptr %3, align 4, !tbaa !8
  %10 = load i32, ptr %4, align 4, !tbaa !8
  %11 = sub i32 %9, %10
  %12 = load i32, ptr %4, align 4, !tbaa !8
  %13 = xor i32 %11, %12
  %14 = or i32 %8, %13
  %15 = xor i32 %5, %14
  %16 = call i32 @constant_time_msb_32(i32 noundef %15)
  ret i32 %16
}

; Function Attrs: nounwind uwtable
define internal i32 @reduce_montgomery(i64 noundef %0) #0 {
  %2 = alloca i64, align 8
  %3 = alloca i64, align 8
  %4 = alloca i64, align 8
  %5 = alloca i32, align 4
  store i64 %0, ptr %2, align 8, !tbaa !12
  call void @llvm.lifetime.start.p0(i64 8, ptr %3) #3
  %6 = load i64, ptr %2, align 8, !tbaa !12
  %7 = trunc i64 %6 to i32
  %8 = mul i32 %7, -58728449
  %9 = zext i32 %8 to i64
  store i64 %9, ptr %3, align 8, !tbaa !12
  call void @llvm.lifetime.start.p0(i64 8, ptr %4) #3
  %10 = load i64, ptr %2, align 8, !tbaa !12
  %11 = load i64, ptr %3, align 8, !tbaa !12
  %12 = mul i64 %11, 8380417
  %13 = add i64 %10, %12
  store i64 %13, ptr %4, align 8, !tbaa !12
  call void @llvm.lifetime.start.p0(i64 4, ptr %5) #3
  %14 = load i64, ptr %4, align 8, !tbaa !12
  %15 = lshr i64 %14, 32
  %16 = trunc i64 %15 to i32
  store i32 %16, ptr %5, align 4, !tbaa !8
  %17 = load i32, ptr %5, align 4, !tbaa !8
  %18 = call i32 @reduce_once(i32 noundef %17)
  call void @llvm.lifetime.end.p0(i64 4, ptr %5) #3
  call void @llvm.lifetime.end.p0(i64 8, ptr %4) #3
  call void @llvm.lifetime.end.p0(i64 8, ptr %3) #3
  ret i32 %18
}

; Function Attrs: inlinehint nounwind uwtable
define internal i32 @reduce_once(i32 noundef %0) #2 {
  %2 = alloca i32, align 4
  store i32 %0, ptr %2, align 4, !tbaa !8
  %3 = load i32, ptr %2, align 4, !tbaa !8
  %4 = call i32 @constant_time_lt_32(i32 noundef %3, i32 noundef 8380417)
  %5 = load i32, ptr %2, align 4, !tbaa !8
  %6 = load i32, ptr %2, align 4, !tbaa !8
  %7 = sub i32 %6, 8380417
  %8 = call i32 @constant_time_select_32(i32 noundef %4, i32 noundef %5, i32 noundef %7)
  ret i32 %8
}

; Function Attrs: nounwind uwtable
define void @ossl_ml_dsa_poly_ntt_inverse(ptr noundef %0) #0 {
  %2 = alloca ptr, align 8
  %3 = alloca i32, align 4
  %4 = alloca i32, align 4
  %5 = alloca i32, align 4
  %6 = alloca i32, align 4
  %7 = alloca i32, align 4
  %8 = alloca i32, align 4
  %9 = alloca i32, align 4
  %10 = alloca i32, align 4
  store ptr %0, ptr %2, align 8, !tbaa !3
  call void @llvm.lifetime.start.p0(i64 4, ptr %3) #3
  call void @llvm.lifetime.start.p0(i64 4, ptr %4) #3
  call void @llvm.lifetime.start.p0(i64 4, ptr %5) #3
  call void @llvm.lifetime.start.p0(i64 4, ptr %6) #3
  call void @llvm.lifetime.start.p0(i64 4, ptr %7) #3
  store i32 256, ptr %7, align 4, !tbaa !8
  store i32 1, ptr %6, align 4, !tbaa !8
  br label %11

11:                                               ; preds = %91, %1
  %12 = load i32, ptr %6, align 4, !tbaa !8
  %13 = icmp slt i32 %12, 256
  br i1 %13, label %14, label %94

14:                                               ; preds = %11
  %15 = load i32, ptr %7, align 4, !tbaa !8
  %16 = ashr i32 %15, 1
  store i32 %16, ptr %7, align 4, !tbaa !8
  store i32 0, ptr %5, align 4, !tbaa !8
  store i32 0, ptr %3, align 4, !tbaa !8
  br label %17

17:                                               ; preds = %87, %14
  %18 = load i32, ptr %3, align 4, !tbaa !8
  %19 = load i32, ptr %7, align 4, !tbaa !8
  %20 = icmp slt i32 %18, %19
  br i1 %20, label %21, label %90

21:                                               ; preds = %17
  call void @llvm.lifetime.start.p0(i64 4, ptr %8) #3
  %22 = load i32, ptr %7, align 4, !tbaa !8
  %23 = load i32, ptr %7, align 4, !tbaa !8
  %24 = sub nsw i32 %23, 1
  %25 = load i32, ptr %3, align 4, !tbaa !8
  %26 = sub nsw i32 %24, %25
  %27 = add nsw i32 %22, %26
  %28 = sext i32 %27 to i64
  %29 = getelementptr inbounds [256 x i32], ptr @zetas_montgomery, i64 0, i64 %28
  %30 = load i32, ptr %29, align 4, !tbaa !8
  %31 = sub i32 8380417, %30
  store i32 %31, ptr %8, align 4, !tbaa !8
  %32 = load i32, ptr %5, align 4, !tbaa !8
  store i32 %32, ptr %4, align 4, !tbaa !8
  br label %33

33:                                               ; preds = %79, %21
  %34 = load i32, ptr %4, align 4, !tbaa !8
  %35 = load i32, ptr %5, align 4, !tbaa !8
  %36 = load i32, ptr %6, align 4, !tbaa !8
  %37 = add nsw i32 %35, %36
  %38 = icmp slt i32 %34, %37
  br i1 %38, label %39, label %82

39:                                               ; preds = %33
  call void @llvm.lifetime.start.p0(i64 4, ptr %9) #3
  %40 = load ptr, ptr %2, align 8, !tbaa !3
  %41 = getelementptr inbounds nuw %struct.poly_st, ptr %40, i32 0, i32 0
  %42 = load i32, ptr %4, align 4, !tbaa !8
  %43 = sext i32 %42 to i64
  %44 = getelementptr inbounds [256 x i32], ptr %41, i64 0, i64 %43
  %45 = load i32, ptr %44, align 4, !tbaa !8
  store i32 %45, ptr %9, align 4, !tbaa !8
  call void @llvm.lifetime.start.p0(i64 4, ptr %10) #3
  %46 = load ptr, ptr %2, align 8, !tbaa !3
  %47 = getelementptr inbounds nuw %struct.poly_st, ptr %46, i32 0, i32 0
  %48 = load i32, ptr %4, align 4, !tbaa !8
  %49 = load i32, ptr %6, align 4, !tbaa !8
  %50 = add nsw i32 %48, %49
  %51 = sext i32 %50 to i64
  %52 = getelementptr inbounds [256 x i32], ptr %47, i64 0, i64 %51
  %53 = load i32, ptr %52, align 4, !tbaa !8
  store i32 %53, ptr %10, align 4, !tbaa !8
  %54 = load i32, ptr %10, align 4, !tbaa !8
  %55 = load i32, ptr %9, align 4, !tbaa !8
  %56 = add i32 %54, %55
  %57 = call i32 @reduce_once(i32 noundef %56)
  %58 = load ptr, ptr %2, align 8, !tbaa !3
  %59 = getelementptr inbounds nuw %struct.poly_st, ptr %58, i32 0, i32 0
  %60 = load i32, ptr %4, align 4, !tbaa !8
  %61 = sext i32 %60 to i64
  %62 = getelementptr inbounds [256 x i32], ptr %59, i64 0, i64 %61
  store i32 %57, ptr %62, align 4, !tbaa !8
  %63 = load i32, ptr %8, align 4, !tbaa !8
  %64 = zext i32 %63 to i64
  %65 = load i32, ptr %9, align 4, !tbaa !8
  %66 = add i32 8380417, %65
  %67 = load i32, ptr %10, align 4, !tbaa !8
  %68 = sub i32 %66, %67
  %69 = zext i32 %68 to i64
  %70 = mul i64 %64, %69
  %71 = call i32 @reduce_montgomery(i64 noundef %70)
  %72 = load ptr, ptr %2, align 8, !tbaa !3
  %73 = getelementptr inbounds nuw %struct.poly_st, ptr %72, i32 0, i32 0
  %74 = load i32, ptr %4, align 4, !tbaa !8
  %75 = load i32, ptr %6, align 4, !tbaa !8
  %76 = add nsw i32 %74, %75
  %77 = sext i32 %76 to i64
  %78 = getelementptr inbounds [256 x i32], ptr %73, i64 0, i64 %77
  store i32 %71, ptr %78, align 4, !tbaa !8
  call void @llvm.lifetime.end.p0(i64 4, ptr %10) #3
  call void @llvm.lifetime.end.p0(i64 4, ptr %9) #3
  br label %79

79:                                               ; preds = %39
  %80 = load i32, ptr %4, align 4, !tbaa !8
  %81 = add nsw i32 %80, 1
  store i32 %81, ptr %4, align 4, !tbaa !8
  br label %33, !llvm.loop !17

82:                                               ; preds = %33
  %83 = load i32, ptr %6, align 4, !tbaa !8
  %84 = mul nsw i32 2, %83
  %85 = load i32, ptr %5, align 4, !tbaa !8
  %86 = add nsw i32 %85, %84
  store i32 %86, ptr %5, align 4, !tbaa !8
  call void @llvm.lifetime.end.p0(i64 4, ptr %8) #3
  br label %87

87:                                               ; preds = %82
  %88 = load i32, ptr %3, align 4, !tbaa !8
  %89 = add nsw i32 %88, 1
  store i32 %89, ptr %3, align 4, !tbaa !8
  br label %17, !llvm.loop !18

90:                                               ; preds = %17
  br label %91

91:                                               ; preds = %90
  %92 = load i32, ptr %6, align 4, !tbaa !8
  %93 = shl i32 %92, 1
  store i32 %93, ptr %6, align 4, !tbaa !8
  br label %11, !llvm.loop !19

94:                                               ; preds = %11
  store i32 0, ptr %3, align 4, !tbaa !8
  br label %95

95:                                               ; preds = %113, %94
  %96 = load i32, ptr %3, align 4, !tbaa !8
  %97 = icmp slt i32 %96, 256
  br i1 %97, label %98, label %116

98:                                               ; preds = %95
  %99 = load ptr, ptr %2, align 8, !tbaa !3
  %100 = getelementptr inbounds nuw %struct.poly_st, ptr %99, i32 0, i32 0
  %101 = load i32, ptr %3, align 4, !tbaa !8
  %102 = sext i32 %101 to i64
  %103 = getelementptr inbounds [256 x i32], ptr %100, i64 0, i64 %102
  %104 = load i32, ptr %103, align 4, !tbaa !8
  %105 = zext i32 %104 to i64
  %106 = mul i64 %105, 41978
  %107 = call i32 @reduce_montgomery(i64 noundef %106)
  %108 = load ptr, ptr %2, align 8, !tbaa !3
  %109 = getelementptr inbounds nuw %struct.poly_st, ptr %108, i32 0, i32 0
  %110 = load i32, ptr %3, align 4, !tbaa !8
  %111 = sext i32 %110 to i64
  %112 = getelementptr inbounds [256 x i32], ptr %109, i64 0, i64 %111
  store i32 %107, ptr %112, align 4, !tbaa !8
  br label %113

113:                                              ; preds = %98
  %114 = load i32, ptr %3, align 4, !tbaa !8
  %115 = add nsw i32 %114, 1
  store i32 %115, ptr %3, align 4, !tbaa !8
  br label %95, !llvm.loop !20

116:                                              ; preds = %95
  call void @llvm.lifetime.end.p0(i64 4, ptr %7) #3
  call void @llvm.lifetime.end.p0(i64 4, ptr %6) #3
  call void @llvm.lifetime.end.p0(i64 4, ptr %5) #3
  call void @llvm.lifetime.end.p0(i64 4, ptr %4) #3
  call void @llvm.lifetime.end.p0(i64 4, ptr %3) #3
  ret void
}