; Function Attrs: nounwind memory(argmem: readwrite) uwtable
define void @ossl_ml_dsa_poly_ntt_inverse(ptr noundef captures(none) %0) local_unnamed_addr #0 {
  br label %.lr.ph47

.lr.ph47:                                         ; preds = %._crit_edge48, %1
  %.03850 = phi i32 [ 256, %1 ], [ %2, %._crit_edge48 ]
  %.03949 = phi i32 [ 1, %1 ], [ %3, %._crit_edge48 ]
  %2 = lshr i32 %.03850, 1
  %reass.add = and i32 %.03850, 510
  %3 = shl i32 %.03949, 1
  %4 = sext i32 %3 to i64
  %5 = sext i32 %.03949 to i64
  %6 = zext nneg i32 %reass.add to i64
  %wide.trip.count = zext nneg i32 %2 to i64
  br label %.lr.ph

.lr.ph:                                           ; preds = %._crit_edge, %.lr.ph47
  %indvars.iv55 = phi i64 [ 0, %.lr.ph47 ], [ %indvars.iv.next56, %._crit_edge ]
  %indvars.iv = phi i64 [ 0, %.lr.ph47 ], [ %indvars.iv.next, %._crit_edge ]
  %7 = add nsw i64 %indvars.iv, %5
  %8 = xor i64 %indvars.iv55, -1
  %9 = add nsw i64 %6, %8
  %10 = getelementptr inbounds [256 x i32], ptr @zetas_montgomery, i64 0, i64 %9
  %11 = load i32, ptr %10, align 4, !tbaa !3
  %12 = sub i32 8380417, %11
  %13 = zext i32 %12 to i64
  %invariant.op = mul nuw i64 %13, 4236238847
  br label %14

14:                                               ; preds = %.lr.ph, %14
  %indvars.iv52 = phi i64 [ %indvars.iv, %.lr.ph ], [ %indvars.iv.next53, %14 ]
  %15 = getelementptr inbounds [256 x i32], ptr %0, i64 0, i64 %indvars.iv52
  %16 = load i32, ptr %15, align 4, !tbaa !3
  %17 = add nsw i64 %indvars.iv52, %5
  %18 = getelementptr inbounds [256 x i32], ptr %0, i64 0, i64 %17
  %19 = load i32, ptr %18, align 4, !tbaa !3
  %20 = add i32 %19, %16
  %21 = add i32 %20, -8380417
  %22 = xor i32 %20, -1
  %23 = and i32 %21, %22
  %.neg.i.i.i = ashr i32 %23, 31
  %24 = tail call i32 asm "", "=r,0,~{dirflag},~{fpsr},~{flags}"(i32 range(i32 -1, 1) %.neg.i.i.i) #1, !srcloc !7
  %25 = and i32 %24, %20
  %26 = xor i32 %.neg.i.i.i, -1
  %27 = tail call i32 asm "", "=r,0,~{dirflag},~{fpsr},~{flags}"(i32 range(i32 -1, 1) %26) #1, !srcloc !7
  %28 = and i32 %27, %21
  %29 = or i32 %28, %25
  store i32 %29, ptr %15, align 4, !tbaa !3
  %30 = add i32 %16, 8380417
  %31 = sub i32 %30, %19
  %32 = zext i32 %31 to i64
  %33 = mul nuw i64 %32, %13
  %.reass = mul i64 %invariant.op, %32
  %34 = and i64 %.reass, 4294967295
  %35 = mul nuw nsw i64 %34, 8380417
  %36 = add i64 %35, %33
  %37 = lshr i64 %36, 32
  %38 = trunc nuw i64 %37 to i32
  %39 = add i32 %38, -8380417
  %40 = xor i32 %38, -1
  %41 = and i32 %39, %40
  %.neg.i.i.i.i = ashr i32 %41, 31
  %42 = tail call i32 asm "", "=r,0,~{dirflag},~{fpsr},~{flags}"(i32 range(i32 -1, 1) %.neg.i.i.i.i) #1, !srcloc !7
  %43 = and i32 %42, %38
  %44 = xor i32 %.neg.i.i.i.i, -1
  %45 = tail call i32 asm "", "=r,0,~{dirflag},~{fpsr},~{flags}"(i32 range(i32 -1, 1) %44) #1, !srcloc !7
  %46 = and i32 %39, %45
  %47 = or i32 %46, %43
  store i32 %47, ptr %18, align 4, !tbaa !3
  %indvars.iv.next53 = add nsw i64 %indvars.iv52, 1
  %48 = icmp slt i64 %indvars.iv.next53, %7
  br i1 %48, label %14, label %._crit_edge, !llvm.loop !13

._crit_edge:                                      ; preds = %14
  %indvars.iv.next = add nsw i64 %indvars.iv, %4
  %indvars.iv.next56 = add nuw nsw i64 %indvars.iv55, 1
  %exitcond.not = icmp eq i64 %indvars.iv.next56, %wide.trip.count
  br i1 %exitcond.not, label %._crit_edge48, label %.lr.ph, !llvm.loop !14

._crit_edge48:                                    ; preds = %._crit_edge
  %49 = icmp slt i32 %3, 256
  br i1 %49, label %.lr.ph47, label %.preheader, !llvm.loop !15

.preheader:                                       ; preds = %._crit_edge48, %.preheader
  %indvars.iv60 = phi i64 [ %indvars.iv.next61, %.preheader ], [ 0, %._crit_edge48 ]
  %50 = getelementptr inbounds nuw [256 x i32], ptr %0, i64 0, i64 %indvars.iv60
  %51 = load i32, ptr %50, align 4, !tbaa !3
  %52 = zext i32 %51 to i64
  %53 = mul nuw nsw i64 %52, 41978
  %54 = mul nuw nsw i64 %52, 8395782
  %55 = and i64 %54, 4294967294
  %56 = mul nuw nsw i64 %55, 8380417
  %57 = add nuw nsw i64 %56, %53
  %58 = lshr i64 %57, 32
  %59 = trunc nuw nsw i64 %58 to i32
  %60 = add nsw i32 %59, -8380417
  %61 = xor i32 %59, -1
  %62 = and i32 %60, %61
  %.neg.i.i.i.i42 = ashr i32 %62, 31
  %63 = tail call i32 asm "", "=r,0,~{dirflag},~{fpsr},~{flags}"(i32 range(i32 -1, 1) %.neg.i.i.i.i42) #1, !srcloc !7
  %64 = and i32 %63, %59
  %65 = xor i32 %.neg.i.i.i.i42, -1
  %66 = tail call i32 asm "", "=r,0,~{dirflag},~{fpsr},~{flags}"(i32 range(i32 -1, 1) %65) #1, !srcloc !7
  %67 = and i32 %60, %66
  %68 = or i32 %67, %64
  store i32 %68, ptr %50, align 4, !tbaa !3
  %indvars.iv.next61 = add nuw nsw i64 %indvars.iv60, 1
  %exitcond63.not = icmp eq i64 %indvars.iv.next61, 256
  br i1 %exitcond63.not, label %69, label %.preheader, !llvm.loop !16

69:                                               ; preds = %.preheader
  ret void
}